target datalayout = "e-m:e-p270:32:32-p271:32:32-p272:64:64-i64:64-i128:128-f80:128-n8:16:32:64-S128"
target triple = "x86_64-pc-linux-gnu"

@_ZN31btMultiBodyMLCPConstraintSolverD1Ev = dso_local unnamed_addr alias void (ptr), ptr @_ZN31btMultiBodyMLCPConstraintSolverD2Ev

; Function Attrs: inlinehint mustprogress nounwind uwtable
define linkonce_odr dso_local void @_ZN31btMultiBodyMLCPConstraintSolverdlEPv(ptr noundef %0) #5 comdat align 2 personality ptr @__gxx_personality_v0 {
  %2 = alloca ptr, align 8
  store ptr %0, ptr %2, align 8, !tbaa !254
  %3 = load ptr, ptr %2, align 8, !tbaa !254
  invoke void @_Z21btAlignedFreeInternalPv(ptr noundef %3)
          to label %4 unwind label %5

4:                                                ; preds = %1
  ret void

5:                                                ; preds = %1
  %6 = landingpad { ptr, i32 }
          catch ptr null
  %7 = extractvalue { ptr, i32 } %6, 0
  call void @__clang_call_terminate(ptr %7) #15
  unreachable
}

; Function Attrs: mustprogress nounwind uwtable
define dso_local void @_ZN31btMultiBodyMLCPConstraintSolverD0Ev(ptr noundef nonnull align 8 dereferenceable(1640) %0) unnamed_addr #1 align 2 {
  %2 = alloca ptr, align 8
  store ptr %0, ptr %2, align 8, !tbaa !12
  %3 = load ptr, ptr %2, align 8
  call void @_ZN31btMultiBodyMLCPConstraintSolverD1Ev(ptr noundef nonnull align 8 dereferenceable(1640) %3) #14
  call void @_ZN31btMultiBodyMLCPConstraintSolverdlEPv(ptr noundef %3) #14
  ret void
}